; ModuleID = '54/1018.c'
source_filename = "54/1018.c"
target datalayout = "e-m:e-p270:32:32-p271:32:32-p272:64:64-i64:64-f80:128-n8:16:32:64-S128"
target triple = "x86_64-pc-linux-gnu"

@.str = private unnamed_addr constant [5 x i8] c"%d%d\00", align 1
@.str.1 = private unnamed_addr constant [3 x i8] c"%d\00", align 1

; Function Attrs: noinline nounwind uwtable
define dso_local i32 @main(i32 %0, i8** %1) #0 {
  %3 = alloca i32, align 4
  %4 = alloca i32, align 4
  %5 = alloca i8**, align 8
  %6 = alloca i32, align 4
  %7 = alloca i32, align 4
  store i32 0, i32* %3, align 4
  store i32 %0, i32* %4, align 4
  store i8** %1, i8*** %5, align 8
  %8 = call i32 (i8*, ...) @__isoc99_scanf(i8* getelementptr inbounds ([5 x i8], [5 x i8]* @.str, i64 0, i64 0), i32* %6, i32* %7)
  %9 = load i32, i32* %6, align 4
  %10 = load i32, i32* %7, align 4
  %11 = call i32 @apple(i32 %9, i32 %10)
  %12 = call i32 (i8*, ...) @printf(i8* getelementptr inbounds ([3 x i8], [3 x i8]* @.str.1, i64 0, i64 0), i32 %11)
  ret i32 0
}

declare dso_local i32 @__isoc99_scanf(i8*, ...) #1

declare dso_local i32 @printf(i8*, ...) #1

; Function Attrs: noinline nounwind uwtable
define dso_local i32 @apple(i32 %0, i32 %1) #0 {
  %3 = alloca i32, align 4
  %4 = alloca i32, align 4
  %5 = alloca i32, align 4
  %6 = alloca i32, align 4
  %7 = alloca i32, align 4
  store i32 %0, i32* %3, align 4
  store i32 %1, i32* %4, align 4
  %8 = load i32, i32* %3, align 4
  %9 = add nsw i32 %8, 1
  store i32 %9, i32* %7, align 4
  br label %10

10:                                               ; preds = %47, %2
  %11 = load i32, i32* %7, align 4
  store i32 %11, i32* %5, align 4
  store i32 0, i32* %6, align 4
  br label %12

12:                                               ; preds = %39, %10
  %13 = load i32, i32* %6, align 4
  %14 = load i32, i32* %3, align 4
  %15 = icmp slt i32 %13, %14
  br i1 %15, label %16, label %42

16:                                               ; preds = %12
  %17 = load i32, i32* %5, align 4
  %18 = load i32, i32* %4, align 4
  %19 = sub nsw i32 %17, %18
  %20 = icmp sgt i32 %19, 0
  br i1 %20, label %21, label %37

21:                                               ; preds = %16
  %22 = load i32, i32* %5, align 4
  %23 = load i32, i32* %4, align 4
  %24 = sub nsw i32 %22, %23
  %25 = load i32, i32* %3, align 4
  %26 = srem i32 %24, %25
  %27 = icmp eq i32 %26, 0
  br i1 %27, label %28, label %37

28:                                               ; preds = %21
  %29 = load i32, i32* %5, align 4
  %30 = load i32, i32* %4, align 4
  %31 = sub nsw i32 %29, %30
  %32 = load i32, i32* %3, align 4
  %33 = sdiv i32 %31, %32
  %34 = load i32, i32* %3, align 4
  %35 = sub nsw i32 %34, 1
  %36 = mul nsw i32 %33, %35
  store i32 %36, i32* %5, align 4
  br label %38

37:                                               ; preds = %21, %16
  store i32 0, i32* %5, align 4
  br label %42

38:                                               ; preds = %28
  br label %39

39:                                               ; preds = %38
  %40 = load i32, i32* %6, align 4
  %41 = add nsw i32 %40, 1
  store i32 %41, i32* %6, align 4
  br label %12

42:                                               ; preds = %37, %12
  %43 = load i32, i32* %5, align 4
  %44 = icmp sgt i32 %43, 0
  br i1 %44, label %45, label %46

45:                                               ; preds = %42
  br label %50

46:                                               ; preds = %42
  br label %47

47:                                               ; preds = %46
  %48 = load i32, i32* %7, align 4
  %49 = add nsw i32 %48, 1
  store i32 %49, i32* %7, align 4
  br label %10

50:                                               ; preds = %45
  %51 = load i32, i32* %7, align 4
  ret i32 %51
}


!llvm.module.flags = !{!0}
!llvm.ident = !{!1}

!0 = !{i32 1, !"wchar_size", i32 4}
!1 = !{!"clang version 10.0.0-4ubuntu1 "}
